target datalayout = "e-m:e-p270:32:32-p271:32:32-p272:64:64-i64:64-i128:128-f80:128-n8:16:32:64-S128"
target triple = "x86_64-pc-linux-gnu"

%struct.JLI_List_ = type { ptr, i64, i64 }

@.str.1 = private unnamed_addr constant [8 x i8] c"realloc\00", align 1

; Function Attrs: nounwind uwtable
define hidden ptr @JLI_MemRealloc(ptr noundef %0, i64 noundef %1) #0 {
  %3 = alloca ptr, align 8
  %4 = alloca i64, align 8
  %5 = alloca ptr, align 8
  store ptr %0, ptr %3, align 8
  store i64 %1, ptr %4, align 8
  %6 = load ptr, ptr %3, align 8
  %7 = load i64, ptr %4, align 8
  %8 = call ptr @realloc(ptr noundef %6, i64 noundef %7) #11
  store ptr %8, ptr %5, align 8
  %9 = load ptr, ptr %5, align 8
  %10 = icmp eq ptr %9, null
  br i1 %10, label %11, label %12

11:                                               ; preds = %2
  call void @perror(ptr noundef @.str.1)
  call void @exit(i32 noundef 1) #10
  unreachable

12:                                               ; preds = %2
  %13 = load ptr, ptr %5, align 8
  ret ptr %13
}

; Function Attrs: nounwind uwtable
define hidden void @JLI_List_ensureCapacity(ptr noundef %0, i64 noundef %1) #0 {
  %3 = alloca ptr, align 8
  %4 = alloca i64, align 8
  store ptr %0, ptr %3, align 8
  store i64 %1, ptr %4, align 8
  %5 = load ptr, ptr %3, align 8
  %6 = getelementptr inbounds %struct.JLI_List_, ptr %5, i32 0, i32 2
  %7 = load i64, ptr %6, align 8
  %8 = load i64, ptr %4, align 8
  %9 = icmp ult i64 %7, %8
  br i1 %9, label %10, label %33

10:                                               ; preds = %2
  br label %11

11:                                               ; preds = %17, %10
  %12 = load ptr, ptr %3, align 8
  %13 = getelementptr inbounds %struct.JLI_List_, ptr %12, i32 0, i32 2
  %14 = load i64, ptr %13, align 8
  %15 = load i64, ptr %4, align 8
  %16 = icmp ult i64 %14, %15
  br i1 %16, label %17, label %22

17:                                               ; preds = %11
  %18 = load ptr, ptr %3, align 8
  %19 = getelementptr inbounds %struct.JLI_List_, ptr %18, i32 0, i32 2
  %20 = load i64, ptr %19, align 8
  %21 = mul i64 %20, 2
  store i64 %21, ptr %19, align 8
  br label %11, !llvm.loop !8

22:                                               ; preds = %11
  %23 = load ptr, ptr %3, align 8
  %24 = getelementptr inbounds %struct.JLI_List_, ptr %23, i32 0, i32 0
  %25 = load ptr, ptr %24, align 8
  %26 = load ptr, ptr %3, align 8
  %27 = getelementptr inbounds %struct.JLI_List_, ptr %26, i32 0, i32 2
  %28 = load i64, ptr %27, align 8
  %29 = mul i64 %28, 8
  %30 = call ptr @JLI_MemRealloc(ptr noundef %25, i64 noundef %29)
  %31 = load ptr, ptr %3, align 8
  %32 = getelementptr inbounds %struct.JLI_List_, ptr %31, i32 0, i32 0
  store ptr %30, ptr %32, align 8
  br label %33

33:                                               ; preds = %22, %2
  ret void
}

; Function Attrs: nounwind uwtable
define void @JLI_List_add(ptr noundef %0, ptr noundef %1) #0 {
  %3 = alloca ptr, align 8
  %4 = alloca ptr, align 8
  store ptr %0, ptr %3, align 8
  store ptr %1, ptr %4, align 8
  %5 = load ptr, ptr %3, align 8
  %6 = load ptr, ptr %3, align 8
  %7 = getelementptr inbounds %struct.JLI_List_, ptr %6, i32 0, i32 1
  %8 = load i64, ptr %7, align 8
  %9 = add i64 %8, 1
  call void @JLI_List_ensureCapacity(ptr noundef %5, i64 noundef %9)
  %10 = load ptr, ptr %4, align 8
  %11 = load ptr, ptr %3, align 8
  %12 = getelementptr inbounds %struct.JLI_List_, ptr %11, i32 0, i32 0
  %13 = load ptr, ptr %12, align 8
  %14 = load ptr, ptr %3, align 8
  %15 = getelementptr inbounds %struct.JLI_List_, ptr %14, i32 0, i32 1
  %16 = load i64, ptr %15, align 8
  %17 = add i64 %16, 1
  store i64 %17, ptr %15, align 8
  %18 = getelementptr inbounds ptr, ptr %13, i64 %16
  store ptr %10, ptr %18, align 8
  ret void
}