; Function Attrs: nounwind uwtable
define void @JLI_List_add(ptr nocapture noundef %0, ptr noundef %1) local_unnamed_addr #0 {
  %3 = getelementptr inbounds i8, ptr %0, i64 8
  %4 = load i64, ptr %3, align 8
  %5 = add i64 %4, 1
  %6 = getelementptr inbounds i8, ptr %0, i64 16
  %7 = load i64, ptr %6, align 8
  %8 = icmp ult i64 %7, %5
  br i1 %8, label %.lr.ph.i, label %.JLI_List_ensureCapacity.exit_crit_edge

.JLI_List_ensureCapacity.exit_crit_edge:          ; preds = %2
  %.pre = load ptr, ptr %0, align 8
  br label %JLI_List_ensureCapacity.exit

.lr.ph.i:                                         ; preds = %2, %.lr.ph.i
  %9 = phi i64 [ %10, %.lr.ph.i ], [ %7, %2 ]
  %10 = shl i64 %9, 1
  %11 = icmp ult i64 %10, %5
  br i1 %11, label %.lr.ph.i, label %12, !llvm.loop !8

12:                                               ; preds = %.lr.ph.i
  store i64 %10, ptr %6, align 8
  %13 = load ptr, ptr %0, align 8
  %14 = shl i64 %9, 4
  %15 = tail call ptr @realloc(ptr noundef %13, i64 noundef %14) #20
  %16 = icmp eq ptr %15, null
  br i1 %16, label %17, label %JLI_MemRealloc.exit.i

17:                                               ; preds = %12
  tail call void @perror(ptr noundef nonnull @.str.1) #18
  tail call void @exit(i32 noundef 1) #19
  unreachable

JLI_MemRealloc.exit.i:                            ; preds = %12
  store ptr %15, ptr %0, align 8
  %.pre7 = load i64, ptr %3, align 8
  %.pre8 = add i64 %.pre7, 1
  br label %JLI_List_ensureCapacity.exit

JLI_List_ensureCapacity.exit:                     ; preds = %.JLI_List_ensureCapacity.exit_crit_edge, %JLI_MemRealloc.exit.i
  %.pre-phi = phi i64 [ %5, %.JLI_List_ensureCapacity.exit_crit_edge ], [ %.pre8, %JLI_MemRealloc.exit.i ]
  %18 = phi i64 [ %4, %.JLI_List_ensureCapacity.exit_crit_edge ], [ %.pre7, %JLI_MemRealloc.exit.i ]
  %19 = phi ptr [ %.pre, %.JLI_List_ensureCapacity.exit_crit_edge ], [ %15, %JLI_MemRealloc.exit.i ]
  store i64 %.pre-phi, ptr %3, align 8
  %20 = getelementptr inbounds ptr, ptr %19, i64 %18
  store ptr %1, ptr %20, align 8
  ret void
}